; Function Attrs: nounwind uwtable
define nonnull ptr @l_Lean_Elab_Tactic_GuardMsgs_parseGuardMsgsFilterSeverity___elambda__3___boxed(ptr noundef %0) #0 {
  %2 = tail call zeroext i8 @l_Lean_Message_isTrace(ptr noundef %0) #7
  %3 = icmp eq i8 %2, 0
  br i1 %3, label %4, label %l_Lean_Elab_Tactic_GuardMsgs_parseGuardMsgsFilterSeverity___elambda__3.exit

4:                                                ; preds = %1
  %5 = getelementptr inbounds nuw i8, ptr %0, i64 49
  %6 = load i8, ptr %5, align 1, !tbaa !14
  %7 = tail call zeroext i8 @l_Lean_beqMessageSeverity____x40_Lean_Message___hyg_107_(i8 noundef zeroext %6, i8 noundef zeroext 1) #7
  %8 = zext i8 %7 to i64
  %9 = shl nuw nsw i64 %8, 1
  %10 = or disjoint i64 %9, 1
  br label %l_Lean_Elab_Tactic_GuardMsgs_parseGuardMsgsFilterSeverity___elambda__3.exit

l_Lean_Elab_Tactic_GuardMsgs_parseGuardMsgsFilterSeverity___elambda__3.exit: ; preds = %1, %4
  %.0.i = phi i64 [ %10, %4 ], [ 1, %1 ]
  %11 = ptrtoint ptr %0 to i64
  %12 = and i64 %11, 1
  %.not = icmp eq i64 %12, 0
  br i1 %.not, label %13, label %lean_dec.exit

13:                                               ; preds = %l_Lean_Elab_Tactic_GuardMsgs_parseGuardMsgsFilterSeverity___elambda__3.exit
  %14 = load i32, ptr %0, align 4, !tbaa !8
  %15 = icmp sgt i32 %14, 1
  br i1 %15, label %16, label %18, !prof !13

16:                                               ; preds = %13
  %17 = add nsw i32 %14, -1
  store i32 %17, ptr %0, align 4, !tbaa !8
  br label %lean_dec.exit

18:                                               ; preds = %13
  %.not.i = icmp eq i32 %14, 0
  br i1 %.not.i, label %lean_dec.exit, label %19

19:                                               ; preds = %18
  tail call void @lean_dec_ref_cold(ptr noundef nonnull %0) #7
  br label %lean_dec.exit

lean_dec.exit:                                    ; preds = %19, %18, %16, %l_Lean_Elab_Tactic_GuardMsgs_parseGuardMsgsFilterSeverity___elambda__3.exit
  %20 = inttoptr i64 %.0.i to ptr
  ret ptr %20
}